target datalayout = "e-m:e-p270:32:32-p271:32:32-p272:64:64-i64:64-i128:128-f80:128-n8:16:32:64-S128"
target triple = "x86_64-pc-linux-gnu"

%struct.traceobj_arg = type { i32, i32, i64, i64, ptr, ptr, ptr }

; Function Attrs: nounwind sspstrong uwtable
define internal void @allocation_info_tracer_mark(ptr noundef %0) #0 {
  %2 = alloca ptr, align 8
  %3 = alloca ptr, align 8
  store ptr %0, ptr %2, align 8, !tbaa !32
  call void @llvm.lifetime.start.p0(i64 8, ptr %3) #17
  %4 = load ptr, ptr %2, align 8, !tbaa !32
  store ptr %4, ptr %3, align 8, !tbaa !10
  %5 = load ptr, ptr %3, align 8, !tbaa !10
  %6 = getelementptr inbounds nuw %struct.traceobj_arg, ptr %5, i32 0, i32 2
  %7 = load i64, ptr %6, align 8, !tbaa !18
  call void @rb_gc_mark(i64 noundef %7)
  %8 = load ptr, ptr %3, align 8, !tbaa !10
  %9 = getelementptr inbounds nuw %struct.traceobj_arg, ptr %8, i32 0, i32 3
  %10 = load i64, ptr %9, align 8, !tbaa !19
  call void @rb_gc_mark(i64 noundef %10)
  call void @llvm.lifetime.end.p0(i64 8, ptr %3) #17
  ret void
}