; Function Attrs: nounwind sspstrong uwtable
define internal void @allocation_info_tracer_mark(ptr noundef readonly captures(none) %0) #0 {
  %2 = getelementptr inbounds nuw i8, ptr %0, i64 8
  %3 = load i64, ptr %2, align 8, !tbaa !25
  tail call void @rb_gc_mark(i64 noundef %3) #10
  %4 = getelementptr inbounds nuw i8, ptr %0, i64 16
  %5 = load i64, ptr %4, align 8, !tbaa !26
  tail call void @rb_gc_mark(i64 noundef %5) #10
  ret void
}